target datalayout = "e-m:e-p270:32:32-p271:32:32-p272:64:64-i64:64-i128:128-f80:128-n8:16:32:64-S128"
target triple = "x86_64-pc-linux-gnu"

%struct.ResourceOwnerData = type { ptr, ptr, ptr, ptr, i8, i8, i8, i8, i32, [32 x %struct.ResourceElem], ptr, i32, i32, [15 x ptr] }
%struct.ResourceElem = type { i64, ptr }

@.str.1 = private unnamed_addr constant [11 x i8] c"resowner.c\00", align 1
@.str.2 = private unnamed_addr constant [48 x i8] c"ResourceOwnerRemember called but array was full\00", align 1
@__func__.ResourceOwnerRemember = private unnamed_addr constant [22 x i8] c"ResourceOwnerRemember\00", align 1

; Function Attrs: nounwind uwtable
define dso_local void @ResourceOwnerRemember(ptr noundef %0, i64 noundef %1, ptr noundef %2) #0 {
  %4 = alloca ptr, align 8
  %5 = alloca i64, align 8
  %6 = alloca ptr, align 8
  %7 = alloca i32, align 4
  store ptr %0, ptr %4, align 8
  store i64 %1, ptr %5, align 8
  store ptr %2, ptr %6, align 8
  call void @llvm.lifetime.start.p0(i64 4, ptr %7) #6
  %8 = load ptr, ptr %4, align 8
  %9 = getelementptr inbounds nuw %struct.ResourceOwnerData, ptr %8, i32 0, i32 7
  %10 = load i8, ptr %9, align 1
  %11 = zext i8 %10 to i32
  %12 = icmp sge i32 %11, 32
  br i1 %12, label %13, label %24

13:                                               ; preds = %3
  br label %14

14:                                               ; preds = %13
  br i1 true, label %15, label %17

15:                                               ; preds = %14
  %16 = call zeroext i1 @errstart_cold(i32 noundef 21, ptr noundef null) #7
  br i1 %16, label %19, label %21

17:                                               ; preds = %14
  %18 = call zeroext i1 @errstart(i32 noundef 21, ptr noundef null)
  br i1 %18, label %19, label %21

19:                                               ; preds = %17, %15
  %20 = call i32 (ptr, ...) @errmsg_internal(ptr noundef @.str.2)
  call void @errfinish(ptr noundef @.str.1, i32 noundef 532, ptr noundef @__func__.ResourceOwnerRemember)
  br label %21

21:                                               ; preds = %19, %17, %15
  unreachable

22:                                               ; No predecessors!
  br label %23

23:                                               ; preds = %22
  br label %24

24:                                               ; preds = %23, %3
  %25 = load ptr, ptr %4, align 8
  %26 = getelementptr inbounds nuw %struct.ResourceOwnerData, ptr %25, i32 0, i32 7
  %27 = load i8, ptr %26, align 1
  %28 = zext i8 %27 to i32
  store i32 %28, ptr %7, align 4
  %29 = load i64, ptr %5, align 8
  %30 = load ptr, ptr %4, align 8
  %31 = getelementptr inbounds nuw %struct.ResourceOwnerData, ptr %30, i32 0, i32 9
  %32 = load i32, ptr %7, align 4
  %33 = zext i32 %32 to i64
  %34 = getelementptr inbounds nuw [32 x %struct.ResourceElem], ptr %31, i64 0, i64 %33
  %35 = getelementptr inbounds nuw %struct.ResourceElem, ptr %34, i32 0, i32 0
  store i64 %29, ptr %35, align 8
  %36 = load ptr, ptr %6, align 8
  %37 = load ptr, ptr %4, align 8
  %38 = getelementptr inbounds nuw %struct.ResourceOwnerData, ptr %37, i32 0, i32 9
  %39 = load i32, ptr %7, align 4
  %40 = zext i32 %39 to i64
  %41 = getelementptr inbounds nuw [32 x %struct.ResourceElem], ptr %38, i64 0, i64 %40
  %42 = getelementptr inbounds nuw %struct.ResourceElem, ptr %41, i32 0, i32 1
  store ptr %36, ptr %42, align 8
  %43 = load ptr, ptr %4, align 8
  %44 = getelementptr inbounds nuw %struct.ResourceOwnerData, ptr %43, i32 0, i32 7
  %45 = load i8, ptr %44, align 1
  %46 = add i8 %45, 1
  store i8 %46, ptr %44, align 1
  call void @llvm.lifetime.end.p0(i64 4, ptr %7) #6
  ret void
}