; Function Attrs: nounwind uwtable
define dso_local void @ResourceOwnerRemember(ptr noundef captures(none) %0, i64 noundef %1, ptr noundef %2) local_unnamed_addr #0 {
  %4 = getelementptr inbounds nuw i8, ptr %0, i64 35
  %5 = load i8, ptr %4, align 1
  %6 = icmp ugt i8 %5, 31
  br i1 %6, label %7, label %10

7:                                                ; preds = %3
  %8 = tail call zeroext i1 @errstart_cold(i32 noundef 21, ptr noundef null) #11
  tail call void @llvm.assume(i1 %8)
  %9 = tail call i32 (ptr, ...) @errmsg_internal(ptr noundef nonnull @.str.2) #10
  tail call void @errfinish(ptr noundef nonnull @.str.1, i32 noundef 532, ptr noundef nonnull @__func__.ResourceOwnerRemember) #10
  unreachable

10:                                               ; preds = %3
  %11 = getelementptr inbounds nuw i8, ptr %0, i64 40
  %12 = zext nneg i8 %5 to i64
  %13 = getelementptr inbounds nuw [32 x %struct.ResourceElem], ptr %11, i64 0, i64 %12
  store i64 %1, ptr %13, align 8
  %14 = getelementptr inbounds nuw i8, ptr %13, i64 8
  store ptr %2, ptr %14, align 8
  %15 = add nuw nsw i8 %5, 1
  store i8 %15, ptr %4, align 1
  ret void
}